; ModuleID = 'source-C-CXX/59/629.c'
source_filename = "source-C-CXX/59/629.c"
target datalayout = "e-m:e-p270:32:32-p271:32:32-p272:64:64-i64:64-f80:128-n8:16:32:64-S128"
target triple = "x86_64-pc-linux-gnu"

@.str = private unnamed_addr constant [3 x i8] c"%d\00", align 1
@.str.1 = private unnamed_addr constant [7 x i8] c"%d %d\0A\00", align 1
@str = private unnamed_addr constant [6 x i8] c"empty\00", align 1

; Function Attrs: nofree nounwind sspstrong uwtable
define dso_local i32 @sushu(i32 %0) local_unnamed_addr #0 {
  %2 = sitofp i32 %0 to double
  %3 = tail call double @sqrt(double %2) #5
  %4 = fptosi double %3 to i32
  %5 = icmp slt i32 %4, 2
  br i1 %5, label %13, label %9

6:                                                ; preds = %9
  %7 = add nuw i32 %10, 1
  %8 = icmp eq i32 %10, %4
  br i1 %8, label %13, label %9, !llvm.loop !5

9:                                                ; preds = %1, %6
  %10 = phi i32 [ %7, %6 ], [ 2, %1 ]
  %11 = srem i32 %0, %10
  %12 = icmp eq i32 %11, 0
  br i1 %12, label %16, label %6

13:                                               ; preds = %6, %1
  %14 = icmp ugt i32 %0, 1
  %15 = zext i1 %14 to i32
  br label %16

16:                                               ; preds = %9, %13
  %17 = phi i32 [ %15, %13 ], [ 0, %9 ]
  ret i32 %17
}

; Function Attrs: argmemonly mustprogress nofree nosync nounwind willreturn
declare void @llvm.lifetime.start.p0i8(i64 immarg, i8* nocapture) #1

; Function Attrs: mustprogress nofree nounwind willreturn
declare double @sqrt(double) local_unnamed_addr #2

; Function Attrs: argmemonly mustprogress nofree nosync nounwind willreturn
declare void @llvm.lifetime.end.p0i8(i64 immarg, i8* nocapture) #1

; Function Attrs: nofree nounwind sspstrong uwtable
define dso_local i32 @main() local_unnamed_addr #0 {
  %1 = alloca i32, align 4
  %2 = bitcast i32* %1 to i8*
  call void @llvm.lifetime.start.p0i8(i64 4, i8* nonnull %2) #5
  %3 = call i32 (i8*, ...) @__isoc99_scanf(i8* getelementptr inbounds ([3 x i8], [3 x i8]* @.str, i64 0, i64 0), i32* nonnull %1)
  %4 = load i32, i32* %1, align 4, !tbaa !7
  %5 = icmp slt i32 %4, 1
  br i1 %5, label %46, label %6

6:                                                ; preds = %0, %39
  %7 = phi i32 [ %41, %39 ], [ 1, %0 ]
  %8 = phi i32 [ %40, %39 ], [ 0, %0 ]
  %9 = add nsw i32 %7, -2
  %10 = sitofp i32 %9 to double
  %11 = call double @sqrt(double %10) #5
  %12 = fptosi double %11 to i32
  %13 = icmp slt i32 %12, 2
  br i1 %13, label %21, label %17

14:                                               ; preds = %17
  %15 = add nuw i32 %18, 1
  %16 = icmp eq i32 %18, %12
  br i1 %16, label %21, label %17, !llvm.loop !5

17:                                               ; preds = %6, %14
  %18 = phi i32 [ %15, %14 ], [ 2, %6 ]
  %19 = srem i32 %9, %18
  %20 = icmp eq i32 %19, 0
  br i1 %20, label %39, label %14

21:                                               ; preds = %14, %6
  %22 = icmp ult i32 %9, 2
  br i1 %22, label %39, label %23

23:                                               ; preds = %21
  %24 = sitofp i32 %7 to double
  %25 = call double @sqrt(double %24) #5
  %26 = fptosi double %25 to i32
  %27 = icmp slt i32 %26, 2
  br i1 %27, label %35, label %31

28:                                               ; preds = %31
  %29 = add nuw i32 %32, 1
  %30 = icmp eq i32 %32, %26
  br i1 %30, label %35, label %31, !llvm.loop !5

31:                                               ; preds = %23, %28
  %32 = phi i32 [ %29, %28 ], [ 2, %23 ]
  %33 = urem i32 %7, %32
  %34 = icmp eq i32 %33, 0
  br i1 %34, label %39, label %28

35:                                               ; preds = %28, %23
  %36 = icmp ult i32 %7, 2
  br i1 %36, label %39, label %37

37:                                               ; preds = %35
  %38 = call i32 (i8*, ...) @printf(i8* nonnull dereferenceable(1) getelementptr inbounds ([7 x i8], [7 x i8]* @.str.1, i64 0, i64 0), i32 %9, i32 %7)
  br label %39

39:                                               ; preds = %17, %31, %21, %35, %37
  %40 = phi i32 [ 1, %37 ], [ %8, %35 ], [ %8, %21 ], [ %8, %31 ], [ %8, %17 ]
  %41 = add nuw nsw i32 %7, 1
  %42 = load i32, i32* %1, align 4, !tbaa !7
  %43 = icmp slt i32 %7, %42
  br i1 %43, label %6, label %44, !llvm.loop !11

44:                                               ; preds = %39
  %45 = icmp eq i32 %40, 0
  br i1 %45, label %46, label %48

46:                                               ; preds = %0, %44
  %47 = call i32 @puts(i8* nonnull dereferenceable(1) getelementptr inbounds ([6 x i8], [6 x i8]* @str, i64 0, i64 0))
  br label %48

48:                                               ; preds = %46, %44
  call void @llvm.lifetime.end.p0i8(i64 4, i8* nonnull %2) #5
  ret i32 0
}

; Function Attrs: nofree nounwind
declare noundef i32 @__isoc99_scanf(i8* nocapture noundef readonly, ...) local_unnamed_addr #3

; Function Attrs: nofree nounwind
declare noundef i32 @printf(i8* nocapture noundef readonly, ...) local_unnamed_addr #3

; Function Attrs: nofree nounwind
declare noundef i32 @puts(i8* nocapture noundef readonly) local_unnamed_addr #4


!llvm.module.flags = !{!0, !1, !2, !3}
!llvm.ident = !{!4}

!0 = !{i32 1, !"wchar_size", i32 4}
!1 = !{i32 7, !"PIC Level", i32 2}
!2 = !{i32 7, !"PIE Level", i32 2}
!3 = !{i32 7, !"uwtable", i32 1}
!4 = !{!"clang version 13.0.0"}
!5 = distinct !{!5, !6}
!6 = !{!"llvm.loop.mustprogress"}
!7 = !{!8, !8, i64 0}
!8 = !{!"int", !9, i64 0}
!9 = !{!"omnipotent char", !10, i64 0}
!10 = !{!"Simple C/C++ TBAA"}
!11 = distinct !{!11, !6}
